target datalayout = "e-m:e-p270:32:32-p271:32:32-p272:64:64-i64:64-i128:128-f80:128-n8:16:32:64-S128"
target triple = "x86_64-pc-linux-gnu"

; Function Attrs: mustprogress nounwind uwtable
define signext i8 @uprv_ebcdictolower_77(i8 noundef signext %0) #0 {
  %2 = alloca i8, align 1
  store i8 %0, ptr %2, align 1, !tbaa !3
  %3 = load i8, ptr %2, align 1, !tbaa !3
  %4 = zext i8 %3 to i32
  %5 = icmp sle i32 193, %4
  br i1 %5, label %6, label %10

6:                                                ; preds = %1
  %7 = load i8, ptr %2, align 1, !tbaa !3
  %8 = zext i8 %7 to i32
  %9 = icmp sle i32 %8, 201
  br i1 %9, label %26, label %10

10:                                               ; preds = %6, %1
  %11 = load i8, ptr %2, align 1, !tbaa !3
  %12 = zext i8 %11 to i32
  %13 = icmp sle i32 209, %12
  br i1 %13, label %14, label %18

14:                                               ; preds = %10
  %15 = load i8, ptr %2, align 1, !tbaa !3
  %16 = zext i8 %15 to i32
  %17 = icmp sle i32 %16, 217
  br i1 %17, label %26, label %18

18:                                               ; preds = %14, %10
  %19 = load i8, ptr %2, align 1, !tbaa !3
  %20 = zext i8 %19 to i32
  %21 = icmp sle i32 226, %20
  br i1 %21, label %22, label %31

22:                                               ; preds = %18
  %23 = load i8, ptr %2, align 1, !tbaa !3
  %24 = zext i8 %23 to i32
  %25 = icmp sle i32 %24, 233
  br i1 %25, label %26, label %31

26:                                               ; preds = %22, %14, %6
  %27 = load i8, ptr %2, align 1, !tbaa !3
  %28 = sext i8 %27 to i32
  %29 = sub nsw i32 %28, 64
  %30 = trunc i32 %29 to i8
  store i8 %30, ptr %2, align 1, !tbaa !3
  br label %31

31:                                               ; preds = %26, %22, %18
  %32 = load i8, ptr %2, align 1, !tbaa !3
  ret i8 %32
}