; Function Attrs: mustprogress nofree norecurse nosync nounwind willreturn memory(none) uwtable
define signext i8 @uprv_ebcdictolower_77(i8 noundef signext %0) local_unnamed_addr #0 {
  %2 = and i8 %0, -17
  %3 = add i8 %2, 63
  %or.cond16 = icmp ult i8 %3, 9
  %4 = add i8 %0, 30
  %or.cond8 = icmp ult i8 %4, 8
  %or.cond17 = or i1 %or.cond8, %or.cond16
  %5 = add nsw i8 %0, -64
  %.0 = select i1 %or.cond17, i8 %5, i8 %0
  ret i8 %.0
}